; ModuleID = '50/2177.c'
source_filename = "50/2177.c"
target datalayout = "e-m:e-p270:32:32-p271:32:32-p272:64:64-i64:64-f80:128-n8:16:32:64-S128"
target triple = "x86_64-pc-linux-gnu"

@.str = private unnamed_addr constant [3 x i8] c"%d\00", align 1
@.str.1 = private unnamed_addr constant [3 x i8] c"1\0A\00", align 1
@.str.2 = private unnamed_addr constant [4 x i8] c"%d\0A\00", align 1

; Function Attrs: noinline nounwind uwtable
define dso_local i32 @main() #0 {
  %1 = alloca i32, align 4
  %2 = alloca i32, align 4
  %3 = alloca i32, align 4
  %4 = alloca i32, align 4
  %5 = alloca i32, align 4
  %6 = alloca [13 x i32], align 16
  store i32 0, i32* %1, align 4
  %7 = getelementptr inbounds [13 x i32], [13 x i32]* %6, i64 0, i64 12
  store i32 31, i32* %7, align 16
  %8 = getelementptr inbounds [13 x i32], [13 x i32]* %6, i64 0, i64 10
  store i32 31, i32* %8, align 8
  %9 = getelementptr inbounds [13 x i32], [13 x i32]* %6, i64 0, i64 8
  store i32 31, i32* %9, align 16
  %10 = getelementptr inbounds [13 x i32], [13 x i32]* %6, i64 0, i64 7
  store i32 31, i32* %10, align 4
  %11 = getelementptr inbounds [13 x i32], [13 x i32]* %6, i64 0, i64 5
  store i32 31, i32* %11, align 4
  %12 = getelementptr inbounds [13 x i32], [13 x i32]* %6, i64 0, i64 3
  store i32 31, i32* %12, align 4
  %13 = getelementptr inbounds [13 x i32], [13 x i32]* %6, i64 0, i64 1
  store i32 31, i32* %13, align 4
  %14 = getelementptr inbounds [13 x i32], [13 x i32]* %6, i64 0, i64 11
  store i32 30, i32* %14, align 4
  %15 = getelementptr inbounds [13 x i32], [13 x i32]* %6, i64 0, i64 9
  store i32 30, i32* %15, align 4
  %16 = getelementptr inbounds [13 x i32], [13 x i32]* %6, i64 0, i64 6
  store i32 30, i32* %16, align 8
  %17 = getelementptr inbounds [13 x i32], [13 x i32]* %6, i64 0, i64 4
  store i32 30, i32* %17, align 16
  %18 = getelementptr inbounds [13 x i32], [13 x i32]* %6, i64 0, i64 2
  store i32 28, i32* %18, align 8
  %19 = call i32 (i8*, ...) @__isoc99_scanf(i8* getelementptr inbounds ([3 x i8], [3 x i8]* @.str, i64 0, i64 0), i32* %2)
  store i32 0, i32* %5, align 4
  %20 = load i32, i32* %2, align 4
  %21 = add nsw i32 12, %20
  %22 = srem i32 %21, 7
  %23 = icmp eq i32 %22, 5
  br i1 %23, label %24, label %26

24:                                               ; preds = %0
  %25 = call i32 (i8*, ...) @printf(i8* getelementptr inbounds ([3 x i8], [3 x i8]* @.str.1, i64 0, i64 0))
  br label %26

26:                                               ; preds = %24, %0
  store i32 1, i32* %4, align 4
  br label %27

27:                                               ; preds = %48, %26
  %28 = load i32, i32* %4, align 4
  %29 = icmp slt i32 %28, 12
  br i1 %29, label %30, label %51

30:                                               ; preds = %27
  %31 = load i32, i32* %4, align 4
  %32 = sext i32 %31 to i64
  %33 = getelementptr inbounds [13 x i32], [13 x i32]* %6, i64 0, i64 %32
  %34 = load i32, i32* %33, align 4
  %35 = load i32, i32* %5, align 4
  %36 = add nsw i32 %35, %34
  store i32 %36, i32* %5, align 4
  %37 = load i32, i32* %5, align 4
  %38 = add nsw i32 %37, 12
  %39 = load i32, i32* %2, align 4
  %40 = add nsw i32 %38, %39
  %41 = srem i32 %40, 7
  %42 = icmp eq i32 %41, 5
  br i1 %42, label %43, label %47

43:                                               ; preds = %30
  %44 = load i32, i32* %4, align 4
  %45 = add nsw i32 %44, 1
  %46 = call i32 (i8*, ...) @printf(i8* getelementptr inbounds ([4 x i8], [4 x i8]* @.str.2, i64 0, i64 0), i32 %45)
  br label %47

47:                                               ; preds = %43, %30
  br label %48

48:                                               ; preds = %47
  %49 = load i32, i32* %4, align 4
  %50 = add nsw i32 %49, 1
  store i32 %50, i32* %4, align 4
  br label %27

51:                                               ; preds = %27
  %52 = load i32, i32* %1, align 4
  ret i32 %52
}

declare dso_local i32 @__isoc99_scanf(i8*, ...) #1

declare dso_local i32 @printf(i8*, ...) #1


!llvm.module.flags = !{!0}
!llvm.ident = !{!1}

!0 = !{i32 1, !"wchar_size", i32 4}
!1 = !{!"clang version 10.0.0-4ubuntu1 "}
